target datalayout = "e-m:e-p270:32:32-p271:32:32-p272:64:64-i64:64-f80:128-n8:16:32:64-S128"
target triple = "x86_64-pc-linux-gnu"

@.str = private unnamed_addr constant [4 x i8] c"%d\0A\00", align 1
@.str.1 = private unnamed_addr constant [3 x i8] c"NO\00", align 1
@.str.2 = private unnamed_addr constant [4 x i8] c"%s\0A\00", align 1

; Function Attrs: noinline nounwind uwtable
define dso_local i32 @main() #0 {
  %1 = alloca i32, align 4
  %2 = alloca [600 x i8], align 16
  %3 = alloca i32, align 4
  %4 = alloca i32, align 4
  %5 = alloca i32, align 4
  %6 = alloca i32, align 4
  %7 = alloca [600 x i32], align 16
  %8 = alloca i32, align 4
  %9 = alloca i32, align 4
  %10 = alloca i32, align 4
  %11 = alloca i32, align 4
  %12 = alloca [600 x [7 x i8]], align 16
  %13 = alloca [600 x [10 x i8]], align 16
  store i32 0, i32* %1, align 4
  %14 = bitcast [600 x i32]* %7 to i8*
  call void @llvm.memset.p0i8.i64(i8* align 16 %14, i8 0, i64 2400, i1 false)
  %15 = bitcast [600 x [7 x i8]]* %12 to i8*
  call void @llvm.memset.p0i8.i64(i8* align 16 %15, i8 0, i64 4200, i1 false)
  %16 = bitcast [600 x [10 x i8]]* %13 to i8*
  call void @llvm.memset.p0i8.i64(i8* align 16 %16, i8 0, i64 6000, i1 false)
  %17 = call i32 (i8*, ...) @__isoc99_scanf(i8* getelementptr inbounds ([4 x i8], [4 x i8]* @.str, i64 0, i64 0), i32* %3)
  %18 = getelementptr inbounds [600 x i8], [600 x i8]* %2, i64 0, i64 0
  %19 = call i32 (i8*, ...) bitcast (i32 (...)* @gets to i32 (i8*, ...)*)(i8* %18)
  %20 = getelementptr inbounds [600 x i8], [600 x i8]* %2, i64 0, i64 0
  %21 = call i64 @strlen(i8* %20) #5
  %22 = trunc i64 %21 to i32
  store i32 %22, i32* %6, align 4
  store i32 0, i32* %4, align 4
  br label %23

23:                                               ; preds = %49, %0
  %24 = load i32, i32* %4, align 4
  %25 = load i32, i32* %6, align 4
  %26 = icmp sle i32 %24, %25
  br i1 %26, label %27, label %52

27:                                               ; preds = %23
  store i32 0, i32* %5, align 4
  br label %28

28:                                               ; preds = %45, %27
  %29 = load i32, i32* %5, align 4
  %30 = load i32, i32* %3, align 4
  %31 = icmp slt i32 %29, %30
  br i1 %31, label %32, label %48

32:                                               ; preds = %28
  %33 = load i32, i32* %4, align 4
  %34 = load i32, i32* %5, align 4
  %35 = add nsw i32 %33, %34
  %36 = sext i32 %35 to i64
  %37 = getelementptr inbounds [600 x i8], [600 x i8]* %2, i64 0, i64 %36
  %38 = load i8, i8* %37, align 1
  %39 = load i32, i32* %4, align 4
  %40 = sext i32 %39 to i64
  %41 = getelementptr inbounds [600 x [7 x i8]], [600 x [7 x i8]]* %12, i64 0, i64 %40
  %42 = load i32, i32* %5, align 4
  %43 = sext i32 %42 to i64
  %44 = getelementptr inbounds [7 x i8], [7 x i8]* %41, i64 0, i64 %43
  store i8 %38, i8* %44, align 1
  br label %45

45:                                               ; preds = %32
  %46 = load i32, i32* %5, align 4
  %47 = add nsw i32 %46, 1
  store i32 %47, i32* %5, align 4
  br label %28

48:                                               ; preds = %28
  br label %49

49:                                               ; preds = %48
  %50 = load i32, i32* %4, align 4
  %51 = add nsw i32 %50, 1
  store i32 %51, i32* %4, align 4
  br label %23

52:                                               ; preds = %23
  %53 = load i32, i32* %4, align 4
  %54 = sub nsw i32 %53, 1
  store i32 %54, i32* %8, align 4
  %55 = getelementptr inbounds [600 x [10 x i8]], [600 x [10 x i8]]* %13, i64 0, i64 0
  %56 = getelementptr inbounds [10 x i8], [10 x i8]* %55, i64 0, i64 0
  %57 = getelementptr inbounds [600 x [7 x i8]], [600 x [7 x i8]]* %12, i64 0, i64 0
  %58 = getelementptr inbounds [7 x i8], [7 x i8]* %57, i64 0, i64 0
  %59 = call i8* @strcpy(i8* %56, i8* %58) #6
  store i32 0, i32* %9, align 4
  %60 = getelementptr inbounds [600 x i32], [600 x i32]* %7, i64 0, i64 0
  store i32 1, i32* %60, align 16
  store i32 1, i32* %4, align 4
  br label %61

61:                                               ; preds = %110, %52
  %62 = load i32, i32* %4, align 4
  %63 = load i32, i32* %8, align 4
  %64 = icmp sle i32 %62, %63
  br i1 %64, label %65, label %113

65:                                               ; preds = %61
  store i32 0, i32* %5, align 4
  store i32 0, i32* %10, align 4
  br label %66

66:                                               ; preds = %88, %65
  %67 = load i32, i32* %5, align 4
  %68 = load i32, i32* %9, align 4
  %69 = icmp sle i32 %67, %68
  br i1 %69, label %70, label %91

70:                                               ; preds = %66
  %71 = load i32, i32* %5, align 4
  %72 = sext i32 %71 to i64
  %73 = getelementptr inbounds [600 x [10 x i8]], [600 x [10 x i8]]* %13, i64 0, i64 %72
  %74 = getelementptr inbounds [10 x i8], [10 x i8]* %73, i64 0, i64 0
  %75 = load i32, i32* %4, align 4
  %76 = sext i32 %75 to i64
  %77 = getelementptr inbounds [600 x [7 x i8]], [600 x [7 x i8]]* %12, i64 0, i64 %76
  %78 = getelementptr inbounds [7 x i8], [7 x i8]* %77, i64 0, i64 0
  %79 = call i32 @strcmp(i8* %74, i8* %78) #5
  %80 = icmp eq i32 %79, 0
  br i1 %80, label %81, label %87

81:                                               ; preds = %70
  %82 = load i32, i32* %5, align 4
  %83 = sext i32 %82 to i64
  %84 = getelementptr inbounds [600 x i32], [600 x i32]* %7, i64 0, i64 %83
  %85 = load i32, i32* %84, align 4
  %86 = add nsw i32 %85, 1
  store i32 %86, i32* %84, align 4
  store i32 1, i32* %10, align 4
  br label %87

87:                                               ; preds = %81, %70
  br label %88

88:                                               ; preds = %87
  %89 = load i32, i32* %5, align 4
  %90 = add nsw i32 %89, 1
  store i32 %90, i32* %5, align 4
  br label %66

91:                                               ; preds = %66
  %92 = load i32, i32* %10, align 4
  %93 = icmp ne i32 %92, 1
  br i1 %93, label %94, label %109

94:                                               ; preds = %91
  %95 = load i32, i32* %9, align 4
  %96 = add nsw i32 %95, 1
  store i32 %96, i32* %9, align 4
  %97 = load i32, i32* %9, align 4
  %98 = sext i32 %97 to i64
  %99 = getelementptr inbounds [600 x i32], [600 x i32]* %7, i64 0, i64 %98
  store i32 1, i32* %99, align 4
  %100 = load i32, i32* %9, align 4
  %101 = sext i32 %100 to i64
  %102 = getelementptr inbounds [600 x [10 x i8]], [600 x [10 x i8]]* %13, i64 0, i64 %101
  %103 = getelementptr inbounds [10 x i8], [10 x i8]* %102, i64 0, i64 0
  %104 = load i32, i32* %4, align 4
  %105 = sext i32 %104 to i64
  %106 = getelementptr inbounds [600 x [7 x i8]], [600 x [7 x i8]]* %12, i64 0, i64 %105
  %107 = getelementptr inbounds [7 x i8], [7 x i8]* %106, i64 0, i64 0
  %108 = call i8* @strcpy(i8* %103, i8* %107) #6
  br label %109

109:                                              ; preds = %94, %91
  br label %110

110:                                              ; preds = %109
  %111 = load i32, i32* %4, align 4
  %112 = add nsw i32 %111, 1
  store i32 %112, i32* %4, align 4
  br label %61

113:                                              ; preds = %61
  %114 = getelementptr inbounds [600 x i32], [600 x i32]* %7, i64 0, i64 0
  %115 = load i32, i32* %114, align 16
  store i32 %115, i32* %11, align 4
  store i32 1, i32* %4, align 4
  br label %116

116:                                              ; preds = %133, %113
  %117 = load i32, i32* %4, align 4
  %118 = load i32, i32* %9, align 4
  %119 = icmp sle i32 %117, %118
  br i1 %119, label %120, label %136

120:                                              ; preds = %116
  %121 = load i32, i32* %11, align 4
  %122 = load i32, i32* %4, align 4
  %123 = sext i32 %122 to i64
  %124 = getelementptr inbounds [600 x i32], [600 x i32]* %7, i64 0, i64 %123
  %125 = load i32, i32* %124, align 4
  %126 = icmp slt i32 %121, %125
  br i1 %126, label %127, label %132

127:                                              ; preds = %120
  %128 = load i32, i32* %4, align 4
  %129 = sext i32 %128 to i64
  %130 = getelementptr inbounds [600 x i32], [600 x i32]* %7, i64 0, i64 %129
  %131 = load i32, i32* %130, align 4
  store i32 %131, i32* %11, align 4
  br label %132

132:                                              ; preds = %127, %120
  br label %133

133:                                              ; preds = %132
  %134 = load i32, i32* %4, align 4
  %135 = add nsw i32 %134, 1
  store i32 %135, i32* %4, align 4
  br label %116

136:                                              ; preds = %116
  %137 = load i32, i32* %11, align 4
  %138 = icmp sle i32 %137, 1
  br i1 %138, label %139, label %141

139:                                              ; preds = %136
  %140 = call i32 (i8*, ...) @printf(i8* getelementptr inbounds ([3 x i8], [3 x i8]* @.str.1, i64 0, i64 0))
  br label %166

141:                                              ; preds = %136
  %142 = load i32, i32* %11, align 4
  %143 = call i32 (i8*, ...) @printf(i8* getelementptr inbounds ([4 x i8], [4 x i8]* @.str, i64 0, i64 0), i32 %142)
  store i32 0, i32* %4, align 4
  br label %144

144:                                              ; preds = %162, %141
  %145 = load i32, i32* %4, align 4
  %146 = load i32, i32* %8, align 4
  %147 = icmp sle i32 %145, %146
  br i1 %147, label %148, label %165

148:                                              ; preds = %144
  %149 = load i32, i32* %4, align 4
  %150 = sext i32 %149 to i64
  %151 = getelementptr inbounds [600 x i32], [600 x i32]* %7, i64 0, i64 %150
  %152 = load i32, i32* %151, align 4
  %153 = load i32, i32* %11, align 4
  %154 = icmp eq i32 %152, %153
  br i1 %154, label %155, label %161

155:                                              ; preds = %148
  %156 = load i32, i32* %4, align 4
  %157 = sext i32 %156 to i64
  %158 = getelementptr inbounds [600 x [10 x i8]], [600 x [10 x i8]]* %13, i64 0, i64 %157
  %159 = getelementptr inbounds [10 x i8], [10 x i8]* %158, i64 0, i64 0
  %160 = call i32 (i8*, ...) @printf(i8* getelementptr inbounds ([4 x i8], [4 x i8]* @.str.2, i64 0, i64 0), i8* %159)
  br label %161

161:                                              ; preds = %155, %148
  br label %162

162:                                              ; preds = %161
  %163 = load i32, i32* %4, align 4
  %164 = add nsw i32 %163, 1
  store i32 %164, i32* %4, align 4
  br label %144

165:                                              ; preds = %144
  br label %166

166:                                              ; preds = %165, %139
  ret i32 0
}